; ModuleID = '2/218.c'
source_filename = "2/218.c"
target datalayout = "e-m:e-p270:32:32-p271:32:32-p272:64:64-i64:64-f80:128-n8:16:32:64-S128"
target triple = "x86_64-pc-linux-gnu"

%struct.book = type { i32, [26 x i8] }

@.str = private unnamed_addr constant [3 x i8] c"%d\00", align 1
@.str.1 = private unnamed_addr constant [6 x i8] c"%d %s\00", align 1
@.str.2 = private unnamed_addr constant [4 x i8] c"%c\0A\00", align 1
@.str.3 = private unnamed_addr constant [4 x i8] c"%d\0A\00", align 1

; Function Attrs: noinline nounwind uwtable
define dso_local void @main() #0 {
  %1 = alloca i32, align 4
  %2 = alloca i32, align 4
  %3 = alloca i32, align 4
  %4 = alloca i32, align 4
  %5 = alloca [150 x i32], align 16
  %6 = alloca i32, align 4
  %7 = alloca i32, align 4
  %8 = alloca %struct.book, align 4
  %9 = alloca %struct.book*, align 8
  %10 = alloca [1000 x %struct.book], align 16
  %11 = alloca [1000 x %struct.book], align 16
  %12 = bitcast [150 x i32]* %5 to i8*
  call void @llvm.memset.p0i8.i64(i8* align 16 %12, i8 0, i64 600, i1 false)
  store i32 0, i32* %7, align 4
  %13 = call i32 (i8*, ...) @__isoc99_scanf(i8* getelementptr inbounds ([3 x i8], [3 x i8]* @.str, i64 0, i64 0), i32* %1)
  %14 = load i32, i32* %1, align 4
  %15 = sext i32 %14 to i64
  %16 = mul i64 %15, 32
  %17 = call noalias i8* @malloc(i64 %16) #4
  %18 = bitcast i8* %17 to %struct.book*
  store %struct.book* %18, %struct.book** %9, align 8
  store i32 0, i32* %2, align 4
  br label %19

19:                                               ; preds = %66, %0
  %20 = load i32, i32* %2, align 4
  %21 = load i32, i32* %1, align 4
  %22 = icmp slt i32 %20, %21
  br i1 %22, label %23, label %69

23:                                               ; preds = %19
  %24 = load %struct.book*, %struct.book** %9, align 8
  %25 = load i32, i32* %2, align 4
  %26 = sext i32 %25 to i64
  %27 = getelementptr inbounds %struct.book, %struct.book* %24, i64 %26
  %28 = getelementptr inbounds %struct.book, %struct.book* %27, i32 0, i32 0
  %29 = load %struct.book*, %struct.book** %9, align 8
  %30 = load i32, i32* %2, align 4
  %31 = sext i32 %30 to i64
  %32 = getelementptr inbounds %struct.book, %struct.book* %29, i64 %31
  %33 = getelementptr inbounds %struct.book, %struct.book* %32, i32 0, i32 1
  %34 = getelementptr inbounds [26 x i8], [26 x i8]* %33, i64 0, i64 0
  %35 = call i32 (i8*, ...) @__isoc99_scanf(i8* getelementptr inbounds ([6 x i8], [6 x i8]* @.str.1, i64 0, i64 0), i32* %28, i8* %34)
  store i32 0, i32* %3, align 4
  br label %36

36:                                               ; preds = %62, %23
  %37 = load %struct.book*, %struct.book** %9, align 8
  %38 = load i32, i32* %2, align 4
  %39 = sext i32 %38 to i64
  %40 = getelementptr inbounds %struct.book, %struct.book* %37, i64 %39
  %41 = getelementptr inbounds %struct.book, %struct.book* %40, i32 0, i32 1
  %42 = load i32, i32* %3, align 4
  %43 = sext i32 %42 to i64
  %44 = getelementptr inbounds [26 x i8], [26 x i8]* %41, i64 0, i64 %43
  %45 = load i8, i8* %44, align 1
  %46 = sext i8 %45 to i32
  %47 = icmp ne i32 %46, 0
  br i1 %47, label %48, label %65

48:                                               ; preds = %36
  %49 = load %struct.book*, %struct.book** %9, align 8
  %50 = load i32, i32* %2, align 4
  %51 = sext i32 %50 to i64
  %52 = getelementptr inbounds %struct.book, %struct.book* %49, i64 %51
  %53 = getelementptr inbounds %struct.book, %struct.book* %52, i32 0, i32 1
  %54 = load i32, i32* %3, align 4
  %55 = sext i32 %54 to i64
  %56 = getelementptr inbounds [26 x i8], [26 x i8]* %53, i64 0, i64 %55
  %57 = load i8, i8* %56, align 1
  %58 = sext i8 %57 to i64
  %59 = getelementptr inbounds [150 x i32], [150 x i32]* %5, i64 0, i64 %58
  %60 = load i32, i32* %59, align 4
  %61 = add nsw i32 %60, 1
  store i32 %61, i32* %59, align 4
  br label %62

62:                                               ; preds = %48
  %63 = load i32, i32* %3, align 4
  %64 = add nsw i32 %63, 1
  store i32 %64, i32* %3, align 4
  br label %36

65:                                               ; preds = %36
  br label %66

66:                                               ; preds = %65
  %67 = load i32, i32* %2, align 4
  %68 = add nsw i32 %67, 1
  store i32 %68, i32* %2, align 4
  br label %19

69:                                               ; preds = %19
  store i32 65, i32* %2, align 4
  br label %70

70:                                               ; preds = %87, %69
  %71 = load i32, i32* %2, align 4
  %72 = icmp sle i32 %71, 90
  br i1 %72, label %73, label %90

73:                                               ; preds = %70
  %74 = load i32, i32* %7, align 4
  %75 = load i32, i32* %2, align 4
  %76 = sext i32 %75 to i64
  %77 = getelementptr inbounds [150 x i32], [150 x i32]* %5, i64 0, i64 %76
  %78 = load i32, i32* %77, align 4
  %79 = icmp slt i32 %74, %78
  br i1 %79, label %80, label %86

80:                                               ; preds = %73
  %81 = load i32, i32* %2, align 4
  %82 = sext i32 %81 to i64
  %83 = getelementptr inbounds [150 x i32], [150 x i32]* %5, i64 0, i64 %82
  %84 = load i32, i32* %83, align 4
  store i32 %84, i32* %7, align 4
  %85 = load i32, i32* %2, align 4
  store i32 %85, i32* %3, align 4
  br label %86

86:                                               ; preds = %80, %73
  br label %87

87:                                               ; preds = %86
  %88 = load i32, i32* %2, align 4
  %89 = add nsw i32 %88, 1
  store i32 %89, i32* %2, align 4
  br label %70

90:                                               ; preds = %70
  %91 = load i32, i32* %3, align 4
  %92 = call i32 (i8*, ...) @printf(i8* getelementptr inbounds ([4 x i8], [4 x i8]* @.str.2, i64 0, i64 0), i32 %91)
  %93 = load i32, i32* %7, align 4
  %94 = call i32 (i8*, ...) @printf(i8* getelementptr inbounds ([4 x i8], [4 x i8]* @.str.3, i64 0, i64 0), i32 %93)
  store i32 0, i32* %2, align 4
  br label %95

95:                                               ; preds = %142, %90
  %96 = load i32, i32* %2, align 4
  %97 = load i32, i32* %1, align 4
  %98 = icmp slt i32 %96, %97
  br i1 %98, label %99, label %145

99:                                               ; preds = %95
  store i32 0, i32* %6, align 4
  store i32 0, i32* %4, align 4
  br label %100

100:                                              ; preds = %127, %99
  %101 = load %struct.book*, %struct.book** %9, align 8
  %102 = load i32, i32* %2, align 4
  %103 = sext i32 %102 to i64
  %104 = getelementptr inbounds %struct.book, %struct.book* %101, i64 %103
  %105 = getelementptr inbounds %struct.book, %struct.book* %104, i32 0, i32 1
  %106 = load i32, i32* %4, align 4
  %107 = sext i32 %106 to i64
  %108 = getelementptr inbounds [26 x i8], [26 x i8]* %105, i64 0, i64 %107
  %109 = load i8, i8* %108, align 1
  %110 = sext i8 %109 to i32
  %111 = icmp ne i32 %110, 0
  br i1 %111, label %112, label %130

112:                                              ; preds = %100
  %113 = load %struct.book*, %struct.book** %9, align 8
  %114 = load i32, i32* %2, align 4
  %115 = sext i32 %114 to i64
  %116 = getelementptr inbounds %struct.book, %struct.book* %113, i64 %115
  %117 = getelementptr inbounds %struct.book, %struct.book* %116, i32 0, i32 1
  %118 = load i32, i32* %4, align 4
  %119 = sext i32 %118 to i64
  %120 = getelementptr inbounds [26 x i8], [26 x i8]* %117, i64 0, i64 %119
  %121 = load i8, i8* %120, align 1
  %122 = sext i8 %121 to i32
  %123 = load i32, i32* %3, align 4
  %124 = icmp eq i32 %122, %123
  br i1 %124, label %125, label %126

125:                                              ; preds = %112
  store i32 1, i32* %6, align 4
  br label %126

126:                                              ; preds = %125, %112
  br label %127

127:                                              ; preds = %126
  %128 = load i32, i32* %4, align 4
  %129 = add nsw i32 %128, 1
  store i32 %129, i32* %4, align 4
  br label %100

130:                                              ; preds = %100
  %131 = load i32, i32* %6, align 4
  %132 = icmp eq i32 %131, 1
  br i1 %132, label %133, label %141

133:                                              ; preds = %130
  %134 = load %struct.book*, %struct.book** %9, align 8
  %135 = load i32, i32* %2, align 4
  %136 = sext i32 %135 to i64
  %137 = getelementptr inbounds %struct.book, %struct.book* %134, i64 %136
  %138 = getelementptr inbounds %struct.book, %struct.book* %137, i32 0, i32 0
  %139 = load i32, i32* %138, align 4
  %140 = call i32 (i8*, ...) @printf(i8* getelementptr inbounds ([4 x i8], [4 x i8]* @.str.3, i64 0, i64 0), i32 %139)
  br label %141

141:                                              ; preds = %133, %130
  br label %142

142:                                              ; preds = %141
  %143 = load i32, i32* %2, align 4
  %144 = add nsw i32 %143, 1
  store i32 %144, i32* %2, align 4
  br label %95

145:                                              ; preds = %95
  ret void
}

; Function Attrs: argmemonly nounwind willreturn
declare void @llvm.memset.p0i8.i64(i8* nocapture writeonly, i8, i64, i1 immarg) #1

declare dso_local i32 @__isoc99_scanf(i8*, ...) #2

; Function Attrs: nounwind
declare dso_local noalias i8* @malloc(i64) #3

declare dso_local i32 @printf(i8*, ...) #2


!llvm.module.flags = !{!0}
!llvm.ident = !{!1}

!0 = !{i32 1, !"wchar_size", i32 4}
!1 = !{!"clang version 10.0.0-4ubuntu1 "}
